target datalayout = "e-m:e-p270:32:32-p271:32:32-p272:64:64-i64:64-i128:128-f80:128-n8:16:32:64-S128"
target triple = "x86_64-pc-linux-gnu"

%struct.lean_object = type { i32, i32 }

; Function Attrs: inlinehint nounwind uwtable
define internal zeroext i1 @lean_is_st(ptr noundef %0) #0 {
  %2 = alloca ptr, align 8
  store ptr %0, ptr %2, align 8, !tbaa !4
  %3 = load ptr, ptr %2, align 8, !tbaa !4
  %4 = getelementptr inbounds nuw %struct.lean_object, ptr %3, i32 0, i32 0
  %5 = load i32, ptr %4, align 4, !tbaa !15
  %6 = icmp sgt i32 %5, 0
  ret i1 %6
}

; Function Attrs: inlinehint nounwind uwtable
define internal void @lean_inc_ref_n(ptr noundef %0, i64 noundef %1) #0 {
  %3 = alloca ptr, align 8
  %4 = alloca i64, align 8
  store ptr %0, ptr %3, align 8, !tbaa !4
  store i64 %1, ptr %4, align 8, !tbaa !13
  %5 = load ptr, ptr %3, align 8, !tbaa !4
  %6 = call zeroext i1 @lean_is_st(ptr noundef %5)
  %7 = zext i1 %6 to i64
  %8 = call i64 @llvm.expect.i64(i64 %7, i64 1)
  %9 = icmp ne i64 %8, 0
  br i1 %9, label %10, label %18

10:                                               ; preds = %2
  %11 = load i64, ptr %4, align 8, !tbaa !13
  %12 = load ptr, ptr %3, align 8, !tbaa !4
  %13 = getelementptr inbounds nuw %struct.lean_object, ptr %12, i32 0, i32 0
  %14 = load i32, ptr %13, align 4, !tbaa !15
  %15 = sext i32 %14 to i64
  %16 = add i64 %15, %11
  %17 = trunc i64 %16 to i32
  store i32 %17, ptr %13, align 4, !tbaa !15
  br label %28

18:                                               ; preds = %2
  %19 = load ptr, ptr %3, align 8, !tbaa !4
  %20 = getelementptr inbounds nuw %struct.lean_object, ptr %19, i32 0, i32 0
  %21 = load i32, ptr %20, align 4, !tbaa !15
  %22 = icmp ne i32 %21, 0
  br i1 %22, label %23, label %27

23:                                               ; preds = %18
  %24 = load ptr, ptr %3, align 8, !tbaa !4
  %25 = load i64, ptr %4, align 8, !tbaa !13
  %26 = trunc i64 %25 to i32
  call void @lean_inc_ref_n_cold(ptr noundef %24, i32 noundef %26)
  br label %27

27:                                               ; preds = %23, %18
  br label %28

28:                                               ; preds = %27, %10
  ret void
}

; Function Attrs: alwaysinline nounwind uwtable
define internal zeroext i1 @lean_is_scalar(ptr noundef %0) #2 {
  %2 = alloca ptr, align 8
  store ptr %0, ptr %2, align 8, !tbaa !4
  %3 = load ptr, ptr %2, align 8, !tbaa !4
  %4 = ptrtoint ptr %3 to i64
  %5 = and i64 %4, 1
  %6 = icmp eq i64 %5, 1
  ret i1 %6
}

; Function Attrs: inlinehint nounwind uwtable
define internal void @lean_inc_n(ptr noundef %0, i64 noundef %1) #0 {
  %3 = alloca ptr, align 8
  %4 = alloca i64, align 8
  store ptr %0, ptr %3, align 8, !tbaa !4
  store i64 %1, ptr %4, align 8, !tbaa !13
  %5 = load ptr, ptr %3, align 8, !tbaa !4
  %6 = call zeroext i1 @lean_is_scalar(ptr noundef %5)
  br i1 %6, label %10, label %7

7:                                                ; preds = %2
  %8 = load ptr, ptr %3, align 8, !tbaa !4
  %9 = load i64, ptr %4, align 8, !tbaa !13
  call void @lean_inc_ref_n(ptr noundef %8, i64 noundef %9)
  br label %10

10:                                               ; preds = %7, %2
  ret void
}